target datalayout = "e-m:e-p270:32:32-p271:32:32-p272:64:64-i64:64-i128:128-f80:128-n8:16:32:64-S128"
target triple = "x86_64-pc-linux-gnu"

%struct.wtap = type { ptr, ptr, i8, i32, i32, ptr, ptr, ptr, i32, ptr, ptr, ptr, ptr, ptr, ptr, ptr, ptr, ptr, ptr, i32, i32, ptr, ptr, ptr, ptr }
%struct.ngsniffer_t = type { i32, i32, i8, i32, i64, i32, %struct.ngsniffer_comp_stream_t, %struct.ngsniffer_comp_stream_t, ptr, ptr, ptr }
%struct.ngsniffer_comp_stream_t = type { ptr, i32, i32, i64, i64 }

; Function Attrs: null_pointer_is_valid sspstrong uwtable
define internal zeroext i1 @ng_read_bytes(ptr noundef %0, ptr noundef %1, i32 noundef %2, i1 noundef zeroext %3, ptr noundef %4, ptr noundef %5) #0 {
  %7 = alloca i1, align 1
  %8 = alloca ptr, align 8
  %9 = alloca ptr, align 8
  %10 = alloca i32, align 4
  %11 = alloca i8, align 1
  %12 = alloca ptr, align 8
  %13 = alloca ptr, align 8
  store ptr %0, ptr %8, align 8
  store ptr %1, ptr %9, align 8
  store i32 %2, ptr %10, align 4
  %14 = zext i1 %3 to i8
  store i8 %14, ptr %11, align 1
  store ptr %4, ptr %12, align 8
  store ptr %5, ptr %13, align 8
  %15 = load ptr, ptr %8, align 8
  %16 = load ptr, ptr %9, align 8
  %17 = load i32, ptr %10, align 4
  %18 = load i8, ptr %11, align 1, !range !6, !noundef !7
  %19 = trunc i8 %18 to i1
  %20 = load ptr, ptr %12, align 8
  %21 = load ptr, ptr %13, align 8
  %22 = call zeroext i1 @ng_read_bytes_or_eof(ptr noundef %15, ptr noundef %16, i32 noundef %17, i1 noundef zeroext %19, ptr noundef %20, ptr noundef %21)
  br i1 %22, label %30, label %23

23:                                               ; preds = %6
  %24 = load ptr, ptr %12, align 8
  %25 = load i32, ptr %24, align 4
  %26 = icmp eq i32 %25, 0
  br i1 %26, label %27, label %29

27:                                               ; preds = %23
  %28 = load ptr, ptr %12, align 8
  store i32 -12, ptr %28, align 4
  br label %29

29:                                               ; preds = %27, %23
  store i1 false, ptr %7, align 1
  br label %31

30:                                               ; preds = %6
  store i1 true, ptr %7, align 1
  br label %31

31:                                               ; preds = %30, %29
  %32 = load i1, ptr %7, align 1
  ret i1 %32
}

; Function Attrs: null_pointer_is_valid sspstrong uwtable
define internal zeroext i1 @ng_skip_bytes_seq(ptr noundef %0, i32 noundef %1, ptr noundef %2, ptr noundef %3) #0 {
  %5 = alloca i1, align 1
  %6 = alloca ptr, align 8
  %7 = alloca i32, align 4
  %8 = alloca ptr, align 8
  %9 = alloca ptr, align 8
  %10 = alloca ptr, align 8
  %11 = alloca ptr, align 8
  %12 = alloca i32, align 4
  %13 = alloca i32, align 4
  store ptr %0, ptr %6, align 8
  store i32 %1, ptr %7, align 4
  store ptr %2, ptr %8, align 8
  store ptr %3, ptr %9, align 8
  call void @llvm.lifetime.start.p0(i64 8, ptr %10) #14
  call void @llvm.lifetime.start.p0(i64 8, ptr %11) #14
  call void @llvm.lifetime.start.p0(i64 4, ptr %12) #14
  %14 = load ptr, ptr %6, align 8
  %15 = getelementptr inbounds nuw %struct.wtap, ptr %14, i32 0, i32 13
  %16 = load ptr, ptr %15, align 8
  store ptr %16, ptr %10, align 8
  %17 = load ptr, ptr %10, align 8
  %18 = getelementptr inbounds nuw %struct.ngsniffer_t, ptr %17, i32 0, i32 2
  %19 = load i8, ptr %18, align 8, !range !6, !noundef !7
  %20 = trunc i8 %19 to i1
  br i1 %20, label %36, label %21

21:                                               ; preds = %4
  %22 = load i32, ptr %7, align 4
  %23 = zext i32 %22 to i64
  %24 = load ptr, ptr %10, align 8
  %25 = getelementptr inbounds nuw %struct.ngsniffer_t, ptr %24, i32 0, i32 6
  %26 = getelementptr inbounds nuw %struct.ngsniffer_comp_stream_t, ptr %25, i32 0, i32 4
  %27 = load i64, ptr %26, align 8
  %28 = add i64 %27, %23
  store i64 %28, ptr %26, align 8
  %29 = load ptr, ptr %6, align 8
  %30 = getelementptr inbounds nuw %struct.wtap, ptr %29, i32 0, i32 0
  %31 = load ptr, ptr %30, align 8
  %32 = load i32, ptr %7, align 4
  %33 = load ptr, ptr %8, align 8
  %34 = load ptr, ptr %9, align 8
  %35 = call zeroext i1 @wtap_read_bytes(ptr noundef %31, ptr noundef null, i32 noundef %32, ptr noundef %33, ptr noundef %34)
  store i1 %35, ptr %5, align 1
  store i32 1, ptr %13, align 4
  br label %62

36:                                               ; preds = %4
  %37 = call noalias ptr @g_malloc(i64 noundef 65536) #16
  store ptr %37, ptr %11, align 8
  br label %38

38:                                               ; preds = %56, %36
  %39 = load i32, ptr %7, align 4
  %40 = icmp ne i32 %39, 0
  br i1 %40, label %41, label %60

41:                                               ; preds = %38
  %42 = load i32, ptr %7, align 4
  %43 = icmp ugt i32 %42, 65536
  br i1 %43, label %44, label %45

44:                                               ; preds = %41
  store i32 65536, ptr %12, align 4
  br label %47

45:                                               ; preds = %41
  %46 = load i32, ptr %7, align 4
  store i32 %46, ptr %12, align 4
  br label %47

47:                                               ; preds = %45, %44
  %48 = load ptr, ptr %6, align 8
  %49 = load ptr, ptr %11, align 8
  %50 = load i32, ptr %12, align 4
  %51 = load ptr, ptr %8, align 8
  %52 = load ptr, ptr %9, align 8
  %53 = call zeroext i1 @ng_read_bytes(ptr noundef %48, ptr noundef %49, i32 noundef %50, i1 noundef zeroext false, ptr noundef %51, ptr noundef %52)
  br i1 %53, label %56, label %54

54:                                               ; preds = %47
  %55 = load ptr, ptr %11, align 8
  call void @g_free(ptr noundef %55)
  store i1 false, ptr %5, align 1
  store i32 1, ptr %13, align 4
  br label %62

56:                                               ; preds = %47
  %57 = load i32, ptr %12, align 4
  %58 = load i32, ptr %7, align 4
  %59 = sub i32 %58, %57
  store i32 %59, ptr %7, align 4
  br label %38, !llvm.loop !8

60:                                               ; preds = %38
  %61 = load ptr, ptr %11, align 8
  call void @g_free(ptr noundef %61)
  store i1 true, ptr %5, align 1
  store i32 1, ptr %13, align 4
  br label %62

62:                                               ; preds = %60, %54, %21
  call void @llvm.lifetime.end.p0(i64 4, ptr %12) #14
  call void @llvm.lifetime.end.p0(i64 8, ptr %11) #14
  call void @llvm.lifetime.end.p0(i64 8, ptr %10) #14
  %63 = load i1, ptr %5, align 1
  ret i1 %63
}