; Function Attrs: null_pointer_is_valid sspstrong uwtable
define internal fastcc zeroext i1 @ng_skip_bytes_seq(ptr noundef readonly captures(none) %0, i32 noundef range(i32 1, 0) %1, ptr noundef %2, ptr noundef %3) unnamed_addr #0 {
  %5 = getelementptr inbounds nuw i8, ptr %0, i64 96
  %6 = load ptr, ptr %5, align 8
  %7 = getelementptr inbounds nuw i8, ptr %6, i64 8
  %8 = load i8, ptr %7, align 8, !range !6, !noundef !7
  %9 = trunc nuw i8 %8 to i1
  br i1 %9, label %17, label %10

10:                                               ; preds = %4
  %11 = zext i32 %1 to i64
  %12 = getelementptr inbounds nuw i8, ptr %6, i64 56
  %13 = load i64, ptr %12, align 8
  %14 = add i64 %13, %11
  store i64 %14, ptr %12, align 8
  %15 = load ptr, ptr %0, align 8
  %16 = tail call zeroext i1 @wtap_read_bytes(ptr noundef %15, ptr noundef null, i32 noundef %1, ptr noundef %2, ptr noundef %3)
  br label %28

17:                                               ; preds = %4
  %18 = tail call noalias dereferenceable_or_null(65536) ptr @g_malloc(i64 noundef 65536) #13
  br label %ng_read_bytes.exit

19:                                               ; preds = %ng_read_bytes.exit
  %20 = sub i32 %.02122, %..021
  %.not = icmp eq i32 %20, 0
  br i1 %.not, label %27, label %ng_read_bytes.exit, !llvm.loop !12

ng_read_bytes.exit:                               ; preds = %17, %19
  %.02122 = phi i32 [ %1, %17 ], [ %20, %19 ]
  %..021 = tail call i32 @llvm.umin.i32(i32 %.02122, i32 65536)
  %21 = tail call fastcc zeroext i1 @ng_read_bytes_or_eof(ptr noundef readonly %0, ptr noundef %18, i32 noundef %..021, i1 noundef zeroext false, ptr noundef %2, ptr noundef %3)
  br i1 %21, label %19, label %22

22:                                               ; preds = %ng_read_bytes.exit
  %23 = load i32, ptr %2, align 4
  %24 = icmp eq i32 %23, 0
  br i1 %24, label %25, label %26

25:                                               ; preds = %22
  store i32 -12, ptr %2, align 4
  br label %26

26:                                               ; preds = %22, %25
  tail call void @g_free(ptr noundef %18)
  br label %28

27:                                               ; preds = %19
  tail call void @g_free(ptr noundef %18)
  br label %28

28:                                               ; preds = %27, %26, %10
  %.020 = phi i1 [ false, %26 ], [ true, %27 ], [ %16, %10 ]
  ret i1 %.020
}